; Function Attrs: mustprogress uwtable
define hidden void @_ZN16char_decl_plugin11set_managerEP11ast_manageri(ptr noundef nonnull align 8 captures(none) dereferenceable(40) initializes((8, 20)) %0, ptr noundef %1, i32 noundef %2) unnamed_addr #3 align 2 personality ptr @__gxx_personality_v0 {
  %4 = alloca %class.symbol, align 8
  %5 = alloca %class.sort_info, align 8
  %6 = getelementptr inbounds nuw i8, ptr %0, i64 8
  store ptr %1, ptr %6, align 8, !tbaa !3
  %7 = getelementptr inbounds nuw i8, ptr %0, i64 16
  store i32 %2, ptr %7, align 8, !tbaa !10
  call void @llvm.lifetime.start.p0(i64 8, ptr nonnull %4) #20
  call void @_ZN6symbolC1EPKc(ptr noundef nonnull align 8 dereferenceable(8) %4, ptr noundef nonnull @.str.20)
  call void @llvm.lifetime.start.p0(i64 40, ptr nonnull %5) #20
  %8 = load i32, ptr %7, align 8, !tbaa !10
  call void @_ZN9decl_infoC2EiijPK9parameterb(ptr noundef nonnull align 8 dereferenceable(40) %5, i32 noundef %8, i32 noundef 0, i32 noundef 0, ptr noundef null, i1 noundef zeroext false)
  %9 = getelementptr inbounds nuw i8, ptr %5, i64 24
  store i32 2, ptr %9, align 8, !tbaa !111
  %10 = getelementptr inbounds nuw i8, ptr %5, i64 32
  store i64 0, ptr %10, align 8, !tbaa !114
  %11 = load i32, ptr %5, align 8, !tbaa !85
  %12 = icmp eq i32 %11, -1
  br i1 %12, label %13, label %15

13:                                               ; preds = %3
  %14 = invoke noundef ptr @_ZN11ast_manager21mk_uninterpreted_sortERK6symboljPK9parameter(ptr noundef nonnull align 8 dereferenceable(976) %1, ptr noundef nonnull align 8 dereferenceable(8) %4, i32 noundef 0, ptr noundef null)
          to label %_ZN11ast_manager7mk_sortERK6symbolRK9sort_info.exit unwind label %34

15:                                               ; preds = %3
  %16 = invoke noundef ptr @_ZN11ast_manager7mk_sortERK6symbolP9sort_info(ptr noundef nonnull align 8 dereferenceable(976) %1, ptr noundef nonnull align 8 dereferenceable(8) %4, ptr noundef nonnull align 8 dereferenceable(40) %5)
          to label %_ZN11ast_manager7mk_sortERK6symbolRK9sort_info.exit unwind label %34

_ZN11ast_manager7mk_sortERK6symbolRK9sort_info.exit: ; preds = %13, %15
  %.0.i = phi ptr [ %14, %13 ], [ %16, %15 ]
  %17 = getelementptr inbounds nuw i8, ptr %0, i64 24
  store ptr %.0.i, ptr %17, align 8, !tbaa !13
  %18 = getelementptr inbounds nuw i8, ptr %5, i64 8
  %19 = load ptr, ptr %18, align 8, !tbaa !89
  %.not.i.i.i = icmp eq ptr %19, null
  br i1 %.not.i.i.i, label %_ZN9decl_infoD2Ev.exit, label %_ZNK6vectorI9parameterLb1EjE4sizeEv.exit.i.i.i.i

_ZNK6vectorI9parameterLb1EjE4sizeEv.exit.i.i.i.i: ; preds = %_ZN11ast_manager7mk_sortERK6symbolRK9sort_info.exit
  %20 = getelementptr inbounds i8, ptr %19, i64 -4
  %21 = load i32, ptr %20, align 4, !tbaa !90
  %.not5.i.i.i.i.i.i.i = icmp eq i32 %21, 0
  br i1 %.not5.i.i.i.i.i.i.i, label %_ZN6vectorI9parameterLb1EjE16destroy_elementsEv.exit.i.i.i, label %.lr.ph.i.i.i.i.i.i.i

.lr.ph.i.i.i.i.i.i.i:                             ; preds = %_ZNK6vectorI9parameterLb1EjE4sizeEv.exit.i.i.i.i, %.lr.ph.i.i.i.i.i.i.i
  %.07.i.i.i.i.i.i.i = phi i32 [ %23, %.lr.ph.i.i.i.i.i.i.i ], [ %21, %_ZNK6vectorI9parameterLb1EjE4sizeEv.exit.i.i.i.i ]
  %.046.i.i.i.i.i.i.i = phi ptr [ %22, %.lr.ph.i.i.i.i.i.i.i ], [ %19, %_ZNK6vectorI9parameterLb1EjE4sizeEv.exit.i.i.i.i ]
  call void @_ZN9parameterD1Ev(ptr noundef nonnull align 8 dereferenceable(16) %.046.i.i.i.i.i.i.i) #20
  %22 = getelementptr inbounds nuw i8, ptr %.046.i.i.i.i.i.i.i, i64 16
  %23 = add i32 %.07.i.i.i.i.i.i.i, -1
  %.not.i.i.i.i.i.i.i = icmp eq i32 %23, 0
  br i1 %.not.i.i.i.i.i.i.i, label %_ZN6vectorI9parameterLb1EjE16destroy_elementsEv.exit.loopexit.i.i.i, label %.lr.ph.i.i.i.i.i.i.i, !llvm.loop !91

_ZN6vectorI9parameterLb1EjE16destroy_elementsEv.exit.loopexit.i.i.i: ; preds = %.lr.ph.i.i.i.i.i.i.i
  %.pre.i.i.i = load ptr, ptr %18, align 8, !tbaa !89
  br label %_ZN6vectorI9parameterLb1EjE16destroy_elementsEv.exit.i.i.i

_ZN6vectorI9parameterLb1EjE16destroy_elementsEv.exit.i.i.i: ; preds = %_ZN6vectorI9parameterLb1EjE16destroy_elementsEv.exit.loopexit.i.i.i, %_ZNK6vectorI9parameterLb1EjE4sizeEv.exit.i.i.i.i
  %24 = phi ptr [ %.pre.i.i.i, %_ZN6vectorI9parameterLb1EjE16destroy_elementsEv.exit.loopexit.i.i.i ], [ %19, %_ZNK6vectorI9parameterLb1EjE4sizeEv.exit.i.i.i.i ]
  %25 = getelementptr inbounds i8, ptr %24, i64 -8
  invoke void @_ZN6memory10deallocateEPv(ptr noundef nonnull %25)
          to label %_ZN9decl_infoD2Ev.exitthread-pre-split unwind label %26

26:                                               ; preds = %_ZN6vectorI9parameterLb1EjE16destroy_elementsEv.exit.i.i.i
  %27 = landingpad { ptr, i32 }
          catch ptr null
  %28 = extractvalue { ptr, i32 } %27, 0
  call void @__clang_call_terminate(ptr %28) #19
  unreachable

_ZN9decl_infoD2Ev.exitthread-pre-split:           ; preds = %_ZN6vectorI9parameterLb1EjE16destroy_elementsEv.exit.i.i.i
  %.pr = load ptr, ptr %17, align 8, !tbaa !13
  br label %_ZN9decl_infoD2Ev.exit

_ZN9decl_infoD2Ev.exit:                           ; preds = %_ZN9decl_infoD2Ev.exitthread-pre-split, %_ZN11ast_manager7mk_sortERK6symbolRK9sort_info.exit
  %29 = phi ptr [ %.pr, %_ZN9decl_infoD2Ev.exitthread-pre-split ], [ %.0.i, %_ZN11ast_manager7mk_sortERK6symbolRK9sort_info.exit ]
  call void @llvm.lifetime.end.p0(i64 40, ptr nonnull %5) #20
  call void @llvm.lifetime.end.p0(i64 8, ptr nonnull %4) #20
  %.not.i = icmp eq ptr %29, null
  br i1 %.not.i, label %_ZN11ast_manager7inc_refEP3ast.exit, label %30

30:                                               ; preds = %_ZN9decl_infoD2Ev.exit
  %31 = getelementptr inbounds nuw i8, ptr %29, i64 8
  %32 = load i32, ptr %31, align 4, !tbaa !18
  %33 = add i32 %32, 1
  store i32 %33, ptr %31, align 4, !tbaa !18
  br label %_ZN11ast_manager7inc_refEP3ast.exit

_ZN11ast_manager7inc_refEP3ast.exit:              ; preds = %_ZN9decl_infoD2Ev.exit, %30
  ret void

34:                                               ; preds = %15, %13
  %35 = landingpad { ptr, i32 }
          cleanup
  call void @_ZN9decl_infoD2Ev(ptr noundef nonnull align 8 dereferenceable(40) %5) #20
  call void @llvm.lifetime.end.p0(i64 40, ptr nonnull %5) #20
  call void @llvm.lifetime.end.p0(i64 8, ptr nonnull %4) #20
  resume { ptr, i32 } %35
}